target datalayout = "e-m:e-p270:32:32-p271:32:32-p272:64:64-i64:64-i128:128-f80:128-n8:16:32:64-S128"
target triple = "x86_64-pc-linux-gnu"

%"class.std::__1::unique_lock" = type <{ ptr, i8, [7 x i8] }>
%"class.std::__1::__assoc_sub_state" = type <{ %"class.std::__1::__shared_count", %"class.std::exception_ptr", %"class.std::__1::mutex", %"class.std::__1::condition_variable", i32, [4 x i8] }>
%"class.std::__1::__shared_count" = type { ptr, i64 }
%"class.std::exception_ptr" = type { ptr }
%"class.std::__1::mutex" = type { %union.pthread_mutex_t }
%union.pthread_mutex_t = type { %struct.__pthread_mutex_s }
%struct.__pthread_mutex_s = type { i32, i32, i32, i32, i32, i16, i16, %struct.__pthread_internal_list }
%struct.__pthread_internal_list = type { ptr, ptr }
%"class.std::__1::condition_variable" = type { %union.pthread_cond_t }
%union.pthread_cond_t = type { %struct.__pthread_cond_s }
%struct.__pthread_cond_s = type { %union.__atomic_wide_counter, %union.__atomic_wide_counter, [2 x i32], [2 x i32], i32, i32, [2 x i32] }
%union.__atomic_wide_counter = type { i64 }
%"class.std::__1::__thread_specific_ptr" = type { i32 }

; Function Attrs: inlinehint mustprogress nounwind uwtable
define linkonce_odr hidden noundef ptr @_ZNSt3__116__libcpp_tls_getB8ne210000Ej(i32 noundef %0) #5 comdat {
  %2 = alloca i32, align 4
  store i32 %0, ptr %2, align 4, !tbaa !9
  %3 = load i32, ptr %2, align 4, !tbaa !9
  %4 = call ptr @pthread_getspecific(i32 noundef %3) #2
  ret ptr %4
}

; Function Attrs: mustprogress nounwind uwtable
define linkonce_odr hidden noundef zeroext i1 @_ZSteqB8ne210000RKSt13exception_ptrS1_(ptr noundef nonnull align 8 dereferenceable(8) %0, ptr noundef nonnull align 8 dereferenceable(8) %1) #0 comdat {
  %3 = alloca ptr, align 8
  %4 = alloca ptr, align 8
  store ptr %0, ptr %3, align 8, !tbaa !48
  store ptr %1, ptr %4, align 8, !tbaa !48
  %5 = load ptr, ptr %3, align 8, !tbaa !48
  %6 = getelementptr inbounds nuw %"class.std::exception_ptr", ptr %5, i32 0, i32 0
  %7 = load ptr, ptr %6, align 8, !tbaa !54
  %8 = load ptr, ptr %4, align 8, !tbaa !48
  %9 = getelementptr inbounds nuw %"class.std::exception_ptr", ptr %8, i32 0, i32 0
  %10 = load ptr, ptr %9, align 8, !tbaa !54
  %11 = icmp eq ptr %7, %10
  ret i1 %11
}

; Function Attrs: mustprogress uwtable
define linkonce_odr hidden noundef ptr @_ZNKSt3__121__thread_specific_ptrINS_15__thread_structEE3getB8ne210000Ev(ptr noundef nonnull align 4 dereferenceable(4) %0) #1 comdat align 2 {
  %2 = alloca ptr, align 8
  store ptr %0, ptr %2, align 8, !tbaa !46
  %3 = load ptr, ptr %2, align 8
  %4 = getelementptr inbounds nuw %"class.std::__1::__thread_specific_ptr", ptr %3, i32 0, i32 0
  %5 = load i32, ptr %4, align 4, !tbaa !111
  %6 = call noundef ptr @_ZNSt3__116__libcpp_tls_getB8ne210000Ej(i32 noundef %5)
  ret ptr %6
}

; Function Attrs: mustprogress nounwind uwtable
define linkonce_odr hidden noundef zeroext i1 @_ZStneB8ne210000RKSt13exception_ptrS1_(ptr noundef nonnull align 8 dereferenceable(8) %0, ptr noundef nonnull align 8 dereferenceable(8) %1) #0 comdat {
  %3 = alloca ptr, align 8
  %4 = alloca ptr, align 8
  store ptr %0, ptr %3, align 8, !tbaa !48
  store ptr %1, ptr %4, align 8, !tbaa !48
  %5 = load ptr, ptr %3, align 8, !tbaa !48
  %6 = load ptr, ptr %4, align 8, !tbaa !48
  %7 = call noundef zeroext i1 @_ZSteqB8ne210000RKSt13exception_ptrS1_(ptr noundef nonnull align 8 dereferenceable(8) %5, ptr noundef nonnull align 8 dereferenceable(8) %6) #2
  %8 = xor i1 %7, true
  ret i1 %8
}

; Function Attrs: mustprogress nounwind uwtable
define linkonce_odr hidden void @_ZNSt13exception_ptrC2B8ne210000EDn(ptr noundef nonnull align 8 dereferenceable(8) %0, ptr %1) unnamed_addr #0 comdat align 2 {
  %3 = alloca ptr, align 8
  %4 = alloca ptr, align 8
  store ptr %0, ptr %3, align 8, !tbaa !48
  store ptr %1, ptr %4, align 8, !tbaa !52
  %5 = load ptr, ptr %3, align 8
  %6 = getelementptr inbounds nuw %"class.std::exception_ptr", ptr %5, i32 0, i32 0
  store ptr null, ptr %6, align 8, !tbaa !54
  ret void
}

; Function Attrs: mustprogress uwtable
define linkonce_odr hidden noundef ptr @_ZNKSt3__121__thread_specific_ptrINS_15__thread_structEEptB8ne210000Ev(ptr noundef nonnull align 4 dereferenceable(4) %0) #1 comdat align 2 {
  %2 = alloca ptr, align 8
  store ptr %0, ptr %2, align 8, !tbaa !46
  %3 = load ptr, ptr %2, align 8
  %4 = call noundef ptr @_ZNKSt3__121__thread_specific_ptrINS_15__thread_structEE3getB8ne210000Ev(ptr noundef nonnull align 4 dereferenceable(4) %3)
  ret ptr %4
}

; Function Attrs: mustprogress nounwind uwtable
define linkonce_odr hidden void @_ZNSt3__111unique_lockINS_5mutexEED2B8ne210000Ev(ptr noundef nonnull align 8 dereferenceable(9) %0) unnamed_addr #0 comdat align 2 {
  %2 = alloca ptr, align 8
  store ptr %0, ptr %2, align 8, !tbaa !34
  %3 = load ptr, ptr %2, align 8
  %4 = getelementptr inbounds nuw %"class.std::__1::unique_lock", ptr %3, i32 0, i32 1
  %5 = load i8, ptr %4, align 8, !tbaa !41, !range !44, !noundef !45
  %6 = trunc i8 %5 to i1
  br i1 %6, label %7, label %10

7:                                                ; preds = %1
  %8 = getelementptr inbounds nuw %"class.std::__1::unique_lock", ptr %3, i32 0, i32 0
  %9 = load ptr, ptr %8, align 8, !tbaa !38
  call void @_ZNSt3__15mutex6unlockEv(ptr noundef nonnull align 8 dereferenceable(40) %9) #2
  br label %10

10:                                               ; preds = %7, %1
  ret void
}

; Function Attrs: mustprogress nounwind uwtable
define linkonce_odr hidden noundef zeroext i1 @_ZNKSt3__117__assoc_sub_state11__has_valueB8ne210000Ev(ptr noundef nonnull align 8 dereferenceable(116) %0) #0 comdat align 2 {
  %2 = alloca i1, align 1
  %3 = alloca ptr, align 8
  %4 = alloca %"class.std::exception_ptr", align 8
  %5 = alloca i1, align 1
  %6 = alloca i1, align 1
  store ptr %0, ptr %3, align 8, !tbaa !25
  %7 = load ptr, ptr %3, align 8
  %8 = getelementptr inbounds nuw %"class.std::__1::__assoc_sub_state", ptr %7, i32 0, i32 4
  %9 = load i32, ptr %8, align 8, !tbaa !27
  %10 = and i32 %9, 1
  %11 = icmp ne i32 %10, 0
  store i1 false, ptr %5, align 1
  store i1 false, ptr %6, align 1
  br i1 %11, label %15, label %12

12:                                               ; preds = %1
  %13 = getelementptr inbounds nuw %"class.std::__1::__assoc_sub_state", ptr %7, i32 0, i32 1
  call void @llvm.lifetime.start.p0(i64 8, ptr %4) #2
  store i1 true, ptr %5, align 1
  call void @_ZNSt13exception_ptrC2B8ne210000EDn(ptr noundef nonnull align 8 dereferenceable(8) %4, ptr null) #2
  store i1 true, ptr %6, align 1
  %14 = call noundef zeroext i1 @_ZStneB8ne210000RKSt13exception_ptrS1_(ptr noundef nonnull align 8 dereferenceable(8) %13, ptr noundef nonnull align 8 dereferenceable(8) %4) #2
  br label %15

15:                                               ; preds = %12, %1
  %16 = phi i1 [ true, %1 ], [ %14, %12 ]
  store i1 %16, ptr %2, align 1
  %17 = load i1, ptr %6, align 1
  br i1 %17, label %18, label %19

18:                                               ; preds = %15
  call void @_ZNSt13exception_ptrD1Ev(ptr noundef nonnull align 8 dereferenceable(8) %4) #2
  br label %19

19:                                               ; preds = %18, %15
  %20 = load i1, ptr %5, align 1
  br i1 %20, label %21, label %22

21:                                               ; preds = %19
  call void @llvm.lifetime.end.p0(i64 8, ptr %4) #2
  br label %22

22:                                               ; preds = %21, %19
  %23 = load i1, ptr %2, align 1
  ret i1 %23
}

; Function Attrs: mustprogress uwtable
define linkonce_odr hidden void @_ZNSt3__111unique_lockINS_5mutexEEC2B8ne210000ERS1_(ptr noundef nonnull align 8 dereferenceable(9) %0, ptr noundef nonnull align 8 dereferenceable(40) %1) unnamed_addr #1 comdat align 2 {
  %3 = alloca ptr, align 8
  %4 = alloca ptr, align 8
  store ptr %0, ptr %3, align 8, !tbaa !34
  store ptr %1, ptr %4, align 8, !tbaa !36
  %5 = load ptr, ptr %3, align 8
  %6 = getelementptr inbounds nuw %"class.std::__1::unique_lock", ptr %5, i32 0, i32 0
  %7 = load ptr, ptr %4, align 8, !tbaa !36
  store ptr %7, ptr %6, align 8, !tbaa !38
  %8 = getelementptr inbounds nuw %"class.std::__1::unique_lock", ptr %5, i32 0, i32 1
  store i8 1, ptr %8, align 8, !tbaa !41
  %9 = getelementptr inbounds nuw %"class.std::__1::unique_lock", ptr %5, i32 0, i32 0
  %10 = load ptr, ptr %9, align 8, !tbaa !38
  call void @_ZNSt3__15mutex4lockEv(ptr noundef nonnull align 8 dereferenceable(40) %10)
  ret void
}

; Function Attrs: mustprogress uwtable
define dso_local void @_ZNSt3__117__assoc_sub_state24set_value_at_thread_exitEv(ptr noundef nonnull align 8 dereferenceable(116) %0) #1 align 2 personality ptr @__gxx_personality_v0 {
  %2 = alloca ptr, align 8
  %3 = alloca %"class.std::__1::unique_lock", align 8
  %4 = alloca ptr, align 8
  %5 = alloca i32, align 4
  store ptr %0, ptr %2, align 8, !tbaa !25
  %6 = load ptr, ptr %2, align 8
  call void @llvm.lifetime.start.p0(i64 16, ptr %3) #2
  %7 = getelementptr inbounds nuw %"class.std::__1::__assoc_sub_state", ptr %6, i32 0, i32 2
  call void @_ZNSt3__111unique_lockINS_5mutexEEC2B8ne210000ERS1_(ptr noundef nonnull align 8 dereferenceable(9) %3, ptr noundef nonnull align 8 dereferenceable(40) %7)
  %8 = invoke noundef zeroext i1 @_ZNKSt3__117__assoc_sub_state11__has_valueB8ne210000Ev(ptr noundef nonnull align 8 dereferenceable(116) %6)
          to label %9 unwind label %12

9:                                                ; preds = %1
  br i1 %8, label %10, label %16

10:                                               ; preds = %9
  invoke void @_ZNSt3__120__throw_future_errorB8ne210000ENS_11future_errcE(i32 noundef 2) #18
          to label %11 unwind label %12

11:                                               ; preds = %10
  unreachable

12:                                               ; preds = %23, %21, %16, %10, %1
  %13 = landingpad { ptr, i32 }
          cleanup
  %14 = extractvalue { ptr, i32 } %13, 0
  store ptr %14, ptr %4, align 8
  %15 = extractvalue { ptr, i32 } %13, 1
  store i32 %15, ptr %5, align 4
  call void @_ZNSt3__111unique_lockINS_5mutexEED2B8ne210000Ev(ptr noundef nonnull align 8 dereferenceable(9) %3) #2
  call void @llvm.lifetime.end.p0(i64 16, ptr %3) #2
  br label %25

16:                                               ; preds = %9
  %17 = getelementptr inbounds nuw %"class.std::__1::__assoc_sub_state", ptr %6, i32 0, i32 4
  %18 = load i32, ptr %17, align 8, !tbaa !27
  %19 = or i32 %18, 1
  store i32 %19, ptr %17, align 8, !tbaa !27
  %20 = invoke noundef nonnull align 4 dereferenceable(4) ptr @_ZNSt3__119__thread_local_dataEv()
          to label %21 unwind label %12

21:                                               ; preds = %16
  %22 = invoke noundef ptr @_ZNKSt3__121__thread_specific_ptrINS_15__thread_structEEptB8ne210000Ev(ptr noundef nonnull align 4 dereferenceable(4) %20)
          to label %23 unwind label %12

23:                                               ; preds = %21
  invoke void @_ZNSt3__115__thread_struct27__make_ready_at_thread_exitEPNS_17__assoc_sub_stateE(ptr noundef nonnull align 8 dereferenceable(8) %22, ptr noundef %6)
          to label %24 unwind label %12

24:                                               ; preds = %23
  call void @_ZNSt3__111unique_lockINS_5mutexEED2B8ne210000Ev(ptr noundef nonnull align 8 dereferenceable(9) %3) #2
  call void @llvm.lifetime.end.p0(i64 16, ptr %3) #2
  ret void

25:                                               ; preds = %12
  %26 = load ptr, ptr %4, align 8
  %27 = load i32, ptr %5, align 4
  %28 = insertvalue { ptr, i32 } poison, ptr %26, 0
  %29 = insertvalue { ptr, i32 } %28, i32 %27, 1
  resume { ptr, i32 } %29
}