; Function Attrs: mustprogress uwtable
define dso_local void @_ZNSt3__117__assoc_sub_state24set_value_at_thread_exitEv(ptr noundef nonnull align 8 dereferenceable(116) %0) local_unnamed_addr #1 align 2 personality ptr @__gxx_personality_v0 {
  %2 = alloca %"class.std::exception_ptr", align 8
  %3 = getelementptr inbounds nuw i8, ptr %0, i64 24
  tail call void @_ZNSt3__15mutex4lockEv(ptr noundef nonnull align 8 dereferenceable(40) %3)
  %4 = getelementptr inbounds nuw i8, ptr %0, i64 112
  %5 = load i32, ptr %4, align 8, !tbaa !16
  %6 = and i32 %5, 1
  %.not.i = icmp eq i32 %6, 0
  br i1 %.not.i, label %_ZNKSt3__117__assoc_sub_state11__has_valueB8ne210000Ev.exit, label %_ZNKSt3__117__assoc_sub_state11__has_valueB8ne210000Ev.exit.thread

_ZNKSt3__117__assoc_sub_state11__has_valueB8ne210000Ev.exit: ; preds = %1
  %7 = getelementptr inbounds nuw i8, ptr %0, i64 16
  call void @llvm.lifetime.start.p0(i64 8, ptr nonnull %2) #21
  store ptr null, ptr %2, align 8, !tbaa !23
  %8 = load ptr, ptr %7, align 8, !tbaa !23
  %.not = icmp eq ptr %8, null
  call void @_ZNSt13exception_ptrD1Ev(ptr noundef nonnull align 8 dereferenceable(8) %2) #21
  call void @llvm.lifetime.end.p0(i64 8, ptr nonnull %2) #21
  br i1 %.not, label %11, label %_ZNKSt3__117__assoc_sub_state11__has_valueB8ne210000Ev.exit.thread

_ZNKSt3__117__assoc_sub_state11__has_valueB8ne210000Ev.exit.thread: ; preds = %1, %_ZNKSt3__117__assoc_sub_state11__has_valueB8ne210000Ev.exit
  invoke void @_ZNSt3__120__throw_future_errorB8ne210000ENS_11future_errcE(i32 noundef 2) #23
          to label %9 unwind label %_ZNSt3__111unique_lockINS_5mutexEED2B8ne210000Ev.exit

9:                                                ; preds = %_ZNKSt3__117__assoc_sub_state11__has_valueB8ne210000Ev.exit.thread
  unreachable

_ZNSt3__111unique_lockINS_5mutexEED2B8ne210000Ev.exit: ; preds = %15, %11, %_ZNKSt3__117__assoc_sub_state11__has_valueB8ne210000Ev.exit.thread
  %10 = landingpad { ptr, i32 }
          cleanup
  call void @_ZNSt3__15mutex6unlockEv(ptr noundef nonnull align 8 dereferenceable(40) %3) #21
  resume { ptr, i32 } %10

11:                                               ; preds = %_ZNKSt3__117__assoc_sub_state11__has_valueB8ne210000Ev.exit
  %12 = load i32, ptr %4, align 8, !tbaa !16
  %13 = or i32 %12, 1
  store i32 %13, ptr %4, align 8, !tbaa !16
  %14 = invoke noundef nonnull align 4 dereferenceable(4) ptr @_ZNSt3__119__thread_local_dataEv()
          to label %15 unwind label %_ZNSt3__111unique_lockINS_5mutexEED2B8ne210000Ev.exit

15:                                               ; preds = %11
  %16 = load i32, ptr %14, align 4, !tbaa !24
  %17 = call noundef ptr @pthread_getspecific(i32 noundef %16) #21
  invoke void @_ZNSt3__115__thread_struct27__make_ready_at_thread_exitEPNS_17__assoc_sub_stateE(ptr noundef nonnull align 8 dereferenceable(8) %17, ptr noundef nonnull %0)
          to label %_ZNSt3__111unique_lockINS_5mutexEED2B8ne210000Ev.exit2 unwind label %_ZNSt3__111unique_lockINS_5mutexEED2B8ne210000Ev.exit

_ZNSt3__111unique_lockINS_5mutexEED2B8ne210000Ev.exit2: ; preds = %15
  call void @_ZNSt3__15mutex6unlockEv(ptr noundef nonnull align 8 dereferenceable(40) %3) #21
  ret void
}